target datalayout = "e-m:e-p270:32:32-p271:32:32-p272:64:64-i64:64-i128:128-f80:128-n8:16:32:64-S128"
target triple = "x86_64-pc-linux-gnu"

%struct.sbc_dsp_context = type { i32, i8, [11 x i8], [2 x [328 x i16]], ptr, ptr, ptr, ptr, ptr, ptr, ptr, ptr }

; Function Attrs: cold nounwind optsize uwtable
define void @ff_sbcdsp_init(ptr noundef %0) #0 {
  %2 = alloca ptr, align 8
  store ptr %0, ptr %2, align 8, !tbaa !4
  %3 = load ptr, ptr %2, align 8, !tbaa !4
  %4 = getelementptr inbounds nuw %struct.sbc_dsp_context, ptr %3, i32 0, i32 4
  store ptr @sbc_analyze_4_simd, ptr %4, align 16, !tbaa !9
  %5 = load ptr, ptr %2, align 8, !tbaa !4
  %6 = getelementptr inbounds nuw %struct.sbc_dsp_context, ptr %5, i32 0, i32 5
  store ptr @sbc_analyze_8_simd, ptr %6, align 8, !tbaa !12
  %7 = load ptr, ptr %2, align 8, !tbaa !4
  %8 = getelementptr inbounds nuw %struct.sbc_dsp_context, ptr %7, i32 0, i32 6
  store ptr @sbc_analyze_4b_4s_simd, ptr %8, align 16, !tbaa !13
  %9 = load ptr, ptr %2, align 8, !tbaa !4
  %10 = getelementptr inbounds nuw %struct.sbc_dsp_context, ptr %9, i32 0, i32 1
  %11 = load i8, ptr %10, align 4, !tbaa !14
  %12 = zext i8 %11 to i32
  %13 = icmp eq i32 %12, 1
  br i1 %13, label %14, label %17

14:                                               ; preds = %1
  %15 = load ptr, ptr %2, align 8, !tbaa !4
  %16 = getelementptr inbounds nuw %struct.sbc_dsp_context, ptr %15, i32 0, i32 7
  store ptr @sbc_analyze_1b_8s_simd_odd, ptr %16, align 8, !tbaa !15
  br label %20

17:                                               ; preds = %1
  %18 = load ptr, ptr %2, align 8, !tbaa !4
  %19 = getelementptr inbounds nuw %struct.sbc_dsp_context, ptr %18, i32 0, i32 7
  store ptr @sbc_analyze_4b_8s_simd, ptr %19, align 8, !tbaa !15
  br label %20

20:                                               ; preds = %17, %14
  %21 = load ptr, ptr %2, align 8, !tbaa !4
  %22 = getelementptr inbounds nuw %struct.sbc_dsp_context, ptr %21, i32 0, i32 8
  store ptr @sbc_enc_process_input_4s, ptr %22, align 16, !tbaa !16
  %23 = load ptr, ptr %2, align 8, !tbaa !4
  %24 = getelementptr inbounds nuw %struct.sbc_dsp_context, ptr %23, i32 0, i32 9
  store ptr @sbc_enc_process_input_8s, ptr %24, align 8, !tbaa !17
  %25 = load ptr, ptr %2, align 8, !tbaa !4
  %26 = getelementptr inbounds nuw %struct.sbc_dsp_context, ptr %25, i32 0, i32 10
  store ptr @sbc_calc_scalefactors, ptr %26, align 16, !tbaa !18
  %27 = load ptr, ptr %2, align 8, !tbaa !4
  %28 = getelementptr inbounds nuw %struct.sbc_dsp_context, ptr %27, i32 0, i32 11
  store ptr @sbc_calc_scalefactors_j, ptr %28, align 8, !tbaa !19
  ret void
}