; Function Attrs: cold mustprogress nofree norecurse nosync nounwind optsize willreturn memory(argmem: readwrite) uwtable
define void @ff_sbcdsp_init(ptr noundef captures(none) initializes((1328, 1392)) %0) local_unnamed_addr #0 {
  %2 = getelementptr inbounds nuw i8, ptr %0, i64 1328
  store ptr @sbc_analyze_4_simd, ptr %2, align 16, !tbaa !4
  %3 = getelementptr inbounds nuw i8, ptr %0, i64 1336
  store ptr @sbc_analyze_8_simd, ptr %3, align 8, !tbaa !10
  %4 = getelementptr inbounds nuw i8, ptr %0, i64 1344
  store ptr @sbc_analyze_4b_4s_simd, ptr %4, align 16, !tbaa !11
  %5 = getelementptr inbounds nuw i8, ptr %0, i64 4
  %6 = load i8, ptr %5, align 4, !tbaa !12
  %7 = icmp eq i8 %6, 1
  %spec.select = select i1 %7, ptr @sbc_analyze_1b_8s_simd_odd, ptr @sbc_analyze_4b_8s_simd
  %8 = getelementptr inbounds nuw i8, ptr %0, i64 1352
  store ptr %spec.select, ptr %8, align 8, !tbaa !13
  %9 = getelementptr inbounds nuw i8, ptr %0, i64 1360
  store ptr @sbc_enc_process_input_4s, ptr %9, align 16, !tbaa !14
  %10 = getelementptr inbounds nuw i8, ptr %0, i64 1368
  store ptr @sbc_enc_process_input_8s, ptr %10, align 8, !tbaa !15
  %11 = getelementptr inbounds nuw i8, ptr %0, i64 1376
  store ptr @sbc_calc_scalefactors, ptr %11, align 16, !tbaa !16
  %12 = getelementptr inbounds nuw i8, ptr %0, i64 1384
  store ptr @sbc_calc_scalefactors_j, ptr %12, align 8, !tbaa !17
  ret void
}